                                      1 ;--------------------------------------------------------
                                      2 ; File Created by SDCC : free open source ISO C Compiler 
                                      3 ; Version 4.3.2 #14228 (MINGW64)
                                      4 ;--------------------------------------------------------
                                      5 	.module main
                                      6 	.optsdcc -msm83
                                      7 	
                                      8 ;--------------------------------------------------------
                                      9 ; Public variables in this module
                                     10 ;--------------------------------------------------------
                                     11 	.globl _main
                                     12 	.globl _keyInput
                                     13 	.globl _set_sprite_data
                                     14 	.globl _set_bkg_tiles
                                     15 	.globl _set_bkg_data
                                     16 	.globl _vsync
                                     17 	.globl _joypad
                                     18 	.globl _blinkFlag
                                     19 	.globl _swordAction
                                     20 	.globl _direction
                                     21 	.globl _heroAction
                                     22 	.globl _swordCnt
                                     23 	.globl _blinkCnt
                                     24 	.globl _actionCnt
                                     25 	.globl _velocityY
                                     26 	.globl _velocityX
                                     27 	.globl _bkgY
                                     28 	.globl _bkgX
                                     29 	.globl _spriteY
                                     30 	.globl _spriteX
                                     31 	.globl _joypadPrevious
                                     32 	.globl _initDangeonSprite
                                     33 	.globl _initHeroSprite
                                     34 ;--------------------------------------------------------
                                     35 ; special function registers
                                     36 ;--------------------------------------------------------
                                     37 ;--------------------------------------------------------
                                     38 ; ram data
                                     39 ;--------------------------------------------------------
                                     40 	.area _DATA
                           000000    41 G$joypadPrevious$0_0$0==.
      000000                         42 _joypadPrevious::
      000000                         43 	.ds 1
                           000001    44 G$spriteX$0_0$0==.
      000001                         45 _spriteX::
      000001                         46 	.ds 1
                           000002    47 G$spriteY$0_0$0==.
      000002                         48 _spriteY::
      000002                         49 	.ds 1
                           000003    50 G$bkgX$0_0$0==.
      000003                         51 _bkgX::
      000003                         52 	.ds 1
                           000004    53 G$bkgY$0_0$0==.
      000004                         54 _bkgY::
      000004                         55 	.ds 1
                           000005    56 G$velocityX$0_0$0==.
      000005                         57 _velocityX::
      000005                         58 	.ds 1
                           000006    59 G$velocityY$0_0$0==.
      000006                         60 _velocityY::
      000006                         61 	.ds 1
                           000007    62 G$actionCnt$0_0$0==.
      000007                         63 _actionCnt::
      000007                         64 	.ds 1
                           000008    65 G$blinkCnt$0_0$0==.
      000008                         66 _blinkCnt::
      000008                         67 	.ds 1
                           000009    68 G$swordCnt$0_0$0==.
      000009                         69 _swordCnt::
      000009                         70 	.ds 1
                           00000A    71 G$heroAction$0_0$0==.
      00000A                         72 _heroAction::
      00000A                         73 	.ds 1
                           00000B    74 G$direction$0_0$0==.
      00000B                         75 _direction::
      00000B                         76 	.ds 1
                           00000C    77 G$swordAction$0_0$0==.
      00000C                         78 _swordAction::
      00000C                         79 	.ds 1
                           00000D    80 G$blinkFlag$0_0$0==.
      00000D                         81 _blinkFlag::
      00000D                         82 	.ds 1
                                     83 ;--------------------------------------------------------
                                     84 ; ram data
                                     85 ;--------------------------------------------------------
                                     86 	.area _INITIALIZED
                                     87 ;--------------------------------------------------------
                                     88 ; absolute external ram data
                                     89 ;--------------------------------------------------------
                                     90 	.area _DABS (ABS)
                                     91 ;--------------------------------------------------------
                                     92 ; global & static initialisations
                                     93 ;--------------------------------------------------------
                                     94 	.area _HOME
                                     95 	.area _GSINIT
                                     96 	.area _GSFINAL
                                     97 	.area _GSINIT
                                     98 ;--------------------------------------------------------
                                     99 ; Home
                                    100 ;--------------------------------------------------------
                                    101 	.area _HOME
                                    102 	.area _HOME
                                    103 ;--------------------------------------------------------
                                    104 ; code
                                    105 ;--------------------------------------------------------
                                    106 	.area _CODE
                           000000   107 	G$keyInput$0$0	= .
                                    108 	.globl	G$keyInput$0$0
                           000000   109 	C$main.c$31$0_0$133	= .
                                    110 	.globl	C$main.c$31$0_0$133
                                    111 ;C:\gbdk_dev\Project\GB_PROJECT\source\main.c:31: void keyInput(void)
                                    112 ;	---------------------------------
                                    113 ; Function keyInput
                                    114 ; ---------------------------------
      000000                        115 _keyInput::
                           000000   116 	C$main.c$33$1_0$133	= .
                                    117 	.globl	C$main.c$33$1_0$133
                                    118 ;C:\gbdk_dev\Project\GB_PROJECT\source\main.c:33: switch (joypad())
      000000 CDr00r00         [24]  119 	call	_joypad
      000003 FE 01            [ 8]  120 	cp	a, #0x01
      000005 28 17            [12]  121 	jr	Z, 00102$
      000007 FE 02            [ 8]  122 	cp	a, #0x02
      000009 28 09            [12]  123 	jr	Z, 00101$
      00000B FE 04            [ 8]  124 	cp	a, #0x04
      00000D 28 19            [12]  125 	jr	Z, 00103$
      00000F D6 08            [ 8]  126 	sub	a, #0x08
      000011 28 1F            [12]  127 	jr	Z, 00104$
      000013 C9               [16]  128 	ret
                           000014   129 	C$main.c$35$2_0$134	= .
                                    130 	.globl	C$main.c$35$2_0$134
                                    131 ;C:\gbdk_dev\Project\GB_PROJECT\source\main.c:35: case J_LEFT:
      000014                        132 00101$:
                                    133 ;c:\gbdk_dev\resources\gbdk\include\gb\gb.h:1893: OAM_item_t * itm = &shadow_OAM[nb];
      000014 01r00r00         [12]  134 	ld	bc, #_shadow_OAM+0
                                    135 ;c:\gbdk_dev\resources\gbdk\include\gb\gb.h:1894: itm->y+=y, itm->x+=x;
      000017 0A               [ 8]  136 	ld	a, (bc)
      000018 02               [ 8]  137 	ld	(bc), a
      000019 03               [ 8]  138 	inc	bc
      00001A 0A               [ 8]  139 	ld	a, (bc)
      00001B 3D               [ 4]  140 	dec	a
      00001C 02               [ 8]  141 	ld	(bc), a
                           00001D   142 	C$main.c$37$2_0$134	= .
                                    143 	.globl	C$main.c$37$2_0$134
                                    144 ;C:\gbdk_dev\Project\GB_PROJECT\source\main.c:37: break;
      00001D C9               [16]  145 	ret
                           00001E   146 	C$main.c$38$2_0$134	= .
                                    147 	.globl	C$main.c$38$2_0$134
                                    148 ;C:\gbdk_dev\Project\GB_PROJECT\source\main.c:38: case J_RIGHT:
      00001E                        149 00102$:
                                    150 ;c:\gbdk_dev\resources\gbdk\include\gb\gb.h:1893: OAM_item_t * itm = &shadow_OAM[nb];
      00001E 01r00r00         [12]  151 	ld	bc, #_shadow_OAM
                                    152 ;c:\gbdk_dev\resources\gbdk\include\gb\gb.h:1894: itm->y+=y, itm->x+=x;
      000021 0A               [ 8]  153 	ld	a, (bc)
      000022 02               [ 8]  154 	ld	(bc), a
      000023 03               [ 8]  155 	inc	bc
      000024 0A               [ 8]  156 	ld	a, (bc)
      000025 3C               [ 4]  157 	inc	a
      000026 02               [ 8]  158 	ld	(bc), a
                           000027   159 	C$main.c$40$2_0$134	= .
                                    160 	.globl	C$main.c$40$2_0$134
                                    161 ;C:\gbdk_dev\Project\GB_PROJECT\source\main.c:40: break;
      000027 C9               [16]  162 	ret
                           000028   163 	C$main.c$41$2_0$134	= .
                                    164 	.globl	C$main.c$41$2_0$134
                                    165 ;C:\gbdk_dev\Project\GB_PROJECT\source\main.c:41: case J_UP:
      000028                        166 00103$:
                                    167 ;c:\gbdk_dev\resources\gbdk\include\gb\gb.h:1893: OAM_item_t * itm = &shadow_OAM[nb];
      000028 01r00r00         [12]  168 	ld	bc, #_shadow_OAM
                                    169 ;c:\gbdk_dev\resources\gbdk\include\gb\gb.h:1894: itm->y+=y, itm->x+=x;
      00002B 0A               [ 8]  170 	ld	a, (bc)
      00002C 3D               [ 4]  171 	dec	a
      00002D 02               [ 8]  172 	ld	(bc), a
      00002E 03               [ 8]  173 	inc	bc
      00002F 0A               [ 8]  174 	ld	a, (bc)
      000030 02               [ 8]  175 	ld	(bc), a
                           000031   176 	C$main.c$43$2_0$134	= .
                                    177 	.globl	C$main.c$43$2_0$134
                                    178 ;C:\gbdk_dev\Project\GB_PROJECT\source\main.c:43: break;
      000031 C9               [16]  179 	ret
                           000032   180 	C$main.c$44$2_0$134	= .
                                    181 	.globl	C$main.c$44$2_0$134
                                    182 ;C:\gbdk_dev\Project\GB_PROJECT\source\main.c:44: case J_DOWN:
      000032                        183 00104$:
                                    184 ;c:\gbdk_dev\resources\gbdk\include\gb\gb.h:1893: OAM_item_t * itm = &shadow_OAM[nb];
      000032 01r00r00         [12]  185 	ld	bc, #_shadow_OAM
                                    186 ;c:\gbdk_dev\resources\gbdk\include\gb\gb.h:1894: itm->y+=y, itm->x+=x;
      000035 0A               [ 8]  187 	ld	a, (bc)
      000036 3C               [ 4]  188 	inc	a
      000037 02               [ 8]  189 	ld	(bc), a
      000038 03               [ 8]  190 	inc	bc
      000039 0A               [ 8]  191 	ld	a, (bc)
      00003A 02               [ 8]  192 	ld	(bc), a
                           00003B   193 	C$main.c$47$1_0$133	= .
                                    194 	.globl	C$main.c$47$1_0$133
                                    195 ;C:\gbdk_dev\Project\GB_PROJECT\source\main.c:47: }
                           00003B   196 	C$main.c$48$1_0$133	= .
                                    197 	.globl	C$main.c$48$1_0$133
                                    198 ;C:\gbdk_dev\Project\GB_PROJECT\source\main.c:48: }
                           00003B   199 	C$main.c$48$1_0$133	= .
                                    200 	.globl	C$main.c$48$1_0$133
                           00003B   201 	XG$keyInput$0$0	= .
                                    202 	.globl	XG$keyInput$0$0
      00003B C9               [16]  203 	ret
                           00003C   204 	G$initDangeonSprite$0$0	= .
                                    205 	.globl	G$initDangeonSprite$0$0
                           00003C   206 	C$main.c$50$1_0$148	= .
                                    207 	.globl	C$main.c$50$1_0$148
                                    208 ;C:\gbdk_dev\Project\GB_PROJECT\source\main.c:50: void initDangeonSprite(void)
                                    209 ;	---------------------------------
                                    210 ; Function initDangeonSprite
                                    211 ; ---------------------------------
      00003C                        212 _initDangeonSprite::
                           00003C   213 	C$main.c$52$1_0$148	= .
                                    214 	.globl	C$main.c$52$1_0$148
                                    215 ;C:\gbdk_dev\Project\GB_PROJECT\source\main.c:52: HIDE_BKG;
      00003C F0r00            [12]  216 	ldh	a, (_LCDC_REG + 0)
      00003E E6 FE            [ 8]  217 	and	a, #0xfe
      000040 E0r00            [12]  218 	ldh	(_LCDC_REG + 0), a
                           000042   219 	C$main.c$53$1_0$148	= .
                                    220 	.globl	C$main.c$53$1_0$148
                                    221 ;C:\gbdk_dev\Project\GB_PROJECT\source\main.c:53: set_bkg_data(0, 52, doukutsuTile);
      000042 11r00r00         [12]  222 	ld	de, #_doukutsuTile
      000045 D5               [16]  223 	push	de
      000046 21 00 34         [12]  224 	ld	hl, #0x3400
      000049 E5               [16]  225 	push	hl
      00004A CDr00r00         [24]  226 	call	_set_bkg_data
      00004D E8 04            [16]  227 	add	sp, #4
                           00004F   228 	C$main.c$54$1_0$148	= .
                                    229 	.globl	C$main.c$54$1_0$148
                                    230 ;C:\gbdk_dev\Project\GB_PROJECT\source\main.c:54: set_bkg_tiles(0,0,32,32,doukutsu);
      00004F 11r00r00         [12]  231 	ld	de, #_doukutsu
      000052 D5               [16]  232 	push	de
      000053 21 20 20         [12]  233 	ld	hl, #0x2020
      000056 E5               [16]  234 	push	hl
      000057 AF               [ 4]  235 	xor	a, a
      000058 0F               [ 4]  236 	rrca
      000059 F5               [16]  237 	push	af
      00005A CDr00r00         [24]  238 	call	_set_bkg_tiles
      00005D E8 06            [16]  239 	add	sp, #6
                           00005F   240 	C$main.c$55$1_0$148	= .
                                    241 	.globl	C$main.c$55$1_0$148
                                    242 ;C:\gbdk_dev\Project\GB_PROJECT\source\main.c:55: SHOW_BKG;
      00005F F0r00            [12]  243 	ldh	a, (_LCDC_REG + 0)
      000061 F6 01            [ 8]  244 	or	a, #0x01
      000063 E0r00            [12]  245 	ldh	(_LCDC_REG + 0), a
                           000065   246 	C$main.c$56$1_0$148	= .
                                    247 	.globl	C$main.c$56$1_0$148
                                    248 ;C:\gbdk_dev\Project\GB_PROJECT\source\main.c:56: }
                           000065   249 	C$main.c$56$1_0$148	= .
                                    250 	.globl	C$main.c$56$1_0$148
                           000065   251 	XG$initDangeonSprite$0$0	= .
                                    252 	.globl	XG$initDangeonSprite$0$0
      000065 C9               [16]  253 	ret
                           000066   254 	G$initHeroSprite$0$0	= .
                                    255 	.globl	G$initHeroSprite$0$0
                           000066   256 	C$main.c$58$1_0$150	= .
                                    257 	.globl	C$main.c$58$1_0$150
                                    258 ;C:\gbdk_dev\Project\GB_PROJECT\source\main.c:58: void initHeroSprite(void)
                                    259 ;	---------------------------------
                                    260 ; Function initHeroSprite
                                    261 ; ---------------------------------
      000066                        262 _initHeroSprite::
                           000066   263 	C$main.c$61$1_0$150	= .
                                    264 	.globl	C$main.c$61$1_0$150
                                    265 ;C:\gbdk_dev\Project\GB_PROJECT\source\main.c:61: set_sprite_data(4,4,HeroDownTile);
      000066 11r00r00         [12]  266 	ld	de, #_HeroDownTile
      000069 D5               [16]  267 	push	de
      00006A 21 04 04         [12]  268 	ld	hl, #0x404
      00006D E5               [16]  269 	push	hl
      00006E CDr00r00         [24]  270 	call	_set_sprite_data
      000071 E8 04            [16]  271 	add	sp, #4
                                    272 ;c:\gbdk_dev\resources\gbdk\include\gb\gb.h:1804: shadow_OAM[nb].tile=tile;
      000073 21r0Ar00         [12]  273 	ld	hl, #(_shadow_OAM + 10)
      000076 36 04            [12]  274 	ld	(hl), #0x04
                                    275 ;c:\gbdk_dev\resources\gbdk\include\gb\gb.h:1850: shadow_OAM[nb].prop=prop;
      000078 21r0Br00         [12]  276 	ld	hl, #(_shadow_OAM + 11)
      00007B 36 00            [12]  277 	ld	(hl), #0x00
                                    278 ;c:\gbdk_dev\resources\gbdk\include\gb\gb.h:1804: shadow_OAM[nb].tile=tile;
      00007D 21r0Er00         [12]  279 	ld	hl, #(_shadow_OAM + 14)
      000080 36 06            [12]  280 	ld	(hl), #0x06
                                    281 ;c:\gbdk_dev\resources\gbdk\include\gb\gb.h:1850: shadow_OAM[nb].prop=prop;
      000082 21r0Fr00         [12]  282 	ld	hl, #(_shadow_OAM + 15)
      000085 36 00            [12]  283 	ld	(hl), #0x00
                           000087   284 	C$main.c$66$1_0$150	= .
                                    285 	.globl	C$main.c$66$1_0$150
                                    286 ;C:\gbdk_dev\Project\GB_PROJECT\source\main.c:66: spriteX=80;
      000087 21r01r00         [12]  287 	ld	hl, #_spriteX
      00008A 36 50            [12]  288 	ld	(hl), #0x50
                           00008C   289 	C$main.c$67$1_0$150	= .
                                    290 	.globl	C$main.c$67$1_0$150
                                    291 ;C:\gbdk_dev\Project\GB_PROJECT\source\main.c:67: spriteY=72;
      00008C 21r02r00         [12]  292 	ld	hl, #_spriteY
      00008F 36 48            [12]  293 	ld	(hl), #0x48
                                    294 ;c:\gbdk_dev\resources\gbdk\include\gb\gb.h:1877: OAM_item_t * itm = &shadow_OAM[nb];
      000091 21r08r00         [12]  295 	ld	hl, #(_shadow_OAM + 8)
                                    296 ;c:\gbdk_dev\resources\gbdk\include\gb\gb.h:1878: itm->y=y, itm->x=x;
      000094 3E 48            [ 8]  297 	ld	a, #0x48
      000096 22               [ 8]  298 	ld	(hl+), a
      000097 36 50            [12]  299 	ld	(hl), #0x50
                                    300 ;C:\gbdk_dev\Project\GB_PROJECT\source\main.c:69: move_sprite(3, spriteX + 8, spriteY);
      000099 21r02r00         [12]  301 	ld	hl, #_spriteY
      00009C 46               [ 8]  302 	ld	b, (hl)
      00009D FAr01r00         [16]  303 	ld	a, (#_spriteX)
      0000A0 C6 08            [ 8]  304 	add	a, #0x08
      0000A2 4F               [ 4]  305 	ld	c, a
                                    306 ;c:\gbdk_dev\resources\gbdk\include\gb\gb.h:1877: OAM_item_t * itm = &shadow_OAM[nb];
      0000A3 21r0Cr00         [12]  307 	ld	hl, #(_shadow_OAM + 12)
                                    308 ;c:\gbdk_dev\resources\gbdk\include\gb\gb.h:1878: itm->y=y, itm->x=x;
      0000A6 78               [ 4]  309 	ld	a, b
      0000A7 22               [ 8]  310 	ld	(hl+), a
      0000A8 71               [ 8]  311 	ld	(hl), c
                           0000A9   312 	C$main.c$70$1_0$150	= .
                                    313 	.globl	C$main.c$70$1_0$150
                                    314 ;C:\gbdk_dev\Project\GB_PROJECT\source\main.c:70: velocityX=0;
      0000A9 21r05r00         [12]  315 	ld	hl, #_velocityX
      0000AC 36 00            [12]  316 	ld	(hl), #0x00
                           0000AE   317 	C$main.c$71$1_0$150	= .
                                    318 	.globl	C$main.c$71$1_0$150
                                    319 ;C:\gbdk_dev\Project\GB_PROJECT\source\main.c:71: velocityY=0;
      0000AE 21r06r00         [12]  320 	ld	hl, #_velocityY
      0000B1 36 00            [12]  321 	ld	(hl), #0x00
                           0000B3   322 	C$main.c$72$1_0$150	= .
                                    323 	.globl	C$main.c$72$1_0$150
                                    324 ;C:\gbdk_dev\Project\GB_PROJECT\source\main.c:72: actionCnt=0;
      0000B3 21r07r00         [12]  325 	ld	hl, #_actionCnt
      0000B6 36 00            [12]  326 	ld	(hl), #0x00
                           0000B8   327 	C$main.c$73$1_0$150	= .
                                    328 	.globl	C$main.c$73$1_0$150
                                    329 ;C:\gbdk_dev\Project\GB_PROJECT\source\main.c:73: heroAction=NOACTION;
      0000B8 21r0Ar00         [12]  330 	ld	hl, #_heroAction
      0000BB 36 00            [12]  331 	ld	(hl), #0x00
                           0000BD   332 	C$main.c$74$1_0$150	= .
                                    333 	.globl	C$main.c$74$1_0$150
                                    334 ;C:\gbdk_dev\Project\GB_PROJECT\source\main.c:74: bkgX = 0;
      0000BD 21r03r00         [12]  335 	ld	hl, #_bkgX
      0000C0 36 00            [12]  336 	ld	(hl), #0x00
                           0000C2   337 	C$main.c$75$1_0$150	= .
                                    338 	.globl	C$main.c$75$1_0$150
                                    339 ;C:\gbdk_dev\Project\GB_PROJECT\source\main.c:75: bkgY = 0;
      0000C2 21r04r00         [12]  340 	ld	hl, #_bkgY
      0000C5 36 00            [12]  341 	ld	(hl), #0x00
                           0000C7   342 	C$main.c$76$1_0$150	= .
                                    343 	.globl	C$main.c$76$1_0$150
                                    344 ;C:\gbdk_dev\Project\GB_PROJECT\source\main.c:76: blinkFlag = FALSE;
      0000C7 21r0Dr00         [12]  345 	ld	hl, #_blinkFlag
      0000CA 36 00            [12]  346 	ld	(hl), #0x00
                           0000CC   347 	C$main.c$77$1_0$150	= .
                                    348 	.globl	C$main.c$77$1_0$150
                                    349 ;C:\gbdk_dev\Project\GB_PROJECT\source\main.c:77: blinkCnt = 0;
      0000CC 21r08r00         [12]  350 	ld	hl, #_blinkCnt
      0000CF 36 00            [12]  351 	ld	(hl), #0x00
                           0000D1   352 	C$main.c$78$1_0$150	= .
                                    353 	.globl	C$main.c$78$1_0$150
                                    354 ;C:\gbdk_dev\Project\GB_PROJECT\source\main.c:78: swordAction = NOACTION;
      0000D1 21r0Cr00         [12]  355 	ld	hl, #_swordAction
      0000D4 36 00            [12]  356 	ld	(hl), #0x00
                           0000D6   357 	C$main.c$79$1_0$150	= .
                                    358 	.globl	C$main.c$79$1_0$150
                                    359 ;C:\gbdk_dev\Project\GB_PROJECT\source\main.c:79: swordCnt = 0;
      0000D6 21r09r00         [12]  360 	ld	hl, #_swordCnt
      0000D9 36 00            [12]  361 	ld	(hl), #0x00
                           0000DB   362 	C$main.c$80$1_0$150	= .
                                    363 	.globl	C$main.c$80$1_0$150
                                    364 ;C:\gbdk_dev\Project\GB_PROJECT\source\main.c:80: direction = DOWN;   
      0000DB 21r0Br00         [12]  365 	ld	hl, #_direction
      0000DE 36 02            [12]  366 	ld	(hl), #0x02
                           0000E0   367 	C$main.c$81$1_0$150	= .
                                    368 	.globl	C$main.c$81$1_0$150
                                    369 ;C:\gbdk_dev\Project\GB_PROJECT\source\main.c:81: }
                           0000E0   370 	C$main.c$81$1_0$150	= .
                                    371 	.globl	C$main.c$81$1_0$150
                           0000E0   372 	XG$initHeroSprite$0$0	= .
                                    373 	.globl	XG$initHeroSprite$0$0
      0000E0 C9               [16]  374 	ret
                           0000E1   375 	G$main$0$0	= .
                                    376 	.globl	G$main$0$0
                           0000E1   377 	C$main.c$83$1_0$170	= .
                                    378 	.globl	C$main.c$83$1_0$170
                                    379 ;C:\gbdk_dev\Project\GB_PROJECT\source\main.c:83: void main(void)
                                    380 ;	---------------------------------
                                    381 ; Function main
                                    382 ; ---------------------------------
      0000E1                        383 _main::
                           0000E1   384 	C$main.c$85$1_0$170	= .
                                    385 	.globl	C$main.c$85$1_0$170
                                    386 ;C:\gbdk_dev\Project\GB_PROJECT\source\main.c:85: DISPLAY_ON;
      0000E1 F0r00            [12]  387 	ldh	a, (_LCDC_REG + 0)
      0000E3 F6 80            [ 8]  388 	or	a, #0x80
      0000E5 E0r00            [12]  389 	ldh	(_LCDC_REG + 0), a
                           0000E7   390 	C$main.c$86$1_0$170	= .
                                    391 	.globl	C$main.c$86$1_0$170
                                    392 ;C:\gbdk_dev\Project\GB_PROJECT\source\main.c:86: SPRITES_8x16;
      0000E7 F0r00            [12]  393 	ldh	a, (_LCDC_REG + 0)
      0000E9 F6 04            [ 8]  394 	or	a, #0x04
      0000EB E0r00            [12]  395 	ldh	(_LCDC_REG + 0), a
                           0000ED   396 	C$main.c$88$1_0$170	= .
                                    397 	.globl	C$main.c$88$1_0$170
                                    398 ;C:\gbdk_dev\Project\GB_PROJECT\source\main.c:88: initDangeonSprite();
      0000ED CDr3Cr00         [24]  399 	call	_initDangeonSprite
                           0000F0   400 	C$main.c$89$1_0$170	= .
                                    401 	.globl	C$main.c$89$1_0$170
                                    402 ;C:\gbdk_dev\Project\GB_PROJECT\source\main.c:89: initHeroSprite();
      0000F0 CDr66r00         [24]  403 	call	_initHeroSprite
                           0000F3   404 	C$main.c$91$1_0$170	= .
                                    405 	.globl	C$main.c$91$1_0$170
                                    406 ;C:\gbdk_dev\Project\GB_PROJECT\source\main.c:91: SHOW_SPRITES;
      0000F3 F0r00            [12]  407 	ldh	a, (_LCDC_REG + 0)
      0000F5 F6 02            [ 8]  408 	or	a, #0x02
      0000F7 E0r00            [12]  409 	ldh	(_LCDC_REG + 0), a
                           0000F9   410 	C$main.c$92$1_0$170	= .
                                    411 	.globl	C$main.c$92$1_0$170
                                    412 ;C:\gbdk_dev\Project\GB_PROJECT\source\main.c:92: while(1){
      0000F9                        413 00102$:
                           0000F9   414 	C$main.c$93$2_0$171	= .
                                    415 	.globl	C$main.c$93$2_0$171
                                    416 ;C:\gbdk_dev\Project\GB_PROJECT\source\main.c:93: vsync();
      0000F9 CDr00r00         [24]  417 	call	_vsync
                           0000FC   418 	C$main.c$95$1_0$170	= .
                                    419 	.globl	C$main.c$95$1_0$170
                                    420 ;C:\gbdk_dev\Project\GB_PROJECT\source\main.c:95: }
                           0000FC   421 	C$main.c$95$1_0$170	= .
                                    422 	.globl	C$main.c$95$1_0$170
                           0000FC   423 	XG$main$0$0	= .
                                    424 	.globl	XG$main$0$0
      0000FC 18 FB            [12]  425 	jr	00102$
                                    426 	.area _CODE
                                    427 	.area _INITIALIZER
                                    428 	.area _CABS (ABS)
